; ModuleID = '16/687.c'
source_filename = "16/687.c"
target datalayout = "e-m:e-p270:32:32-p271:32:32-p272:64:64-i64:64-f80:128-n8:16:32:64-S128"
target triple = "x86_64-pc-linux-gnu"

@.str = private unnamed_addr constant [3 x i8] c"%d\00", align 1

; Function Attrs: noinline nounwind uwtable
define dso_local i32 @main() #0 {
  %1 = alloca i32, align 4
  %2 = alloca i32, align 4
  %3 = alloca i32, align 4
  %4 = alloca i32, align 4
  %5 = alloca i32, align 4
  store i32 0, i32* %1, align 4
  store i32 1, i32* %5, align 4
  %6 = call i32 (i8*, ...) @__isoc99_scanf(i8* getelementptr inbounds ([3 x i8], [3 x i8]* @.str, i64 0, i64 0), i32* %3)
  %7 = load i32, i32* %3, align 4
  %8 = icmp slt i32 %7, 10
  br i1 %8, label %9, label %10

9:                                                ; preds = %0
  store i32 1, i32* %4, align 4
  br label %25

10:                                               ; preds = %0
  %11 = load i32, i32* %3, align 4
  %12 = icmp slt i32 %11, 100
  br i1 %12, label %13, label %14

13:                                               ; preds = %10
  store i32 2, i32* %4, align 4
  br label %24

14:                                               ; preds = %10
  %15 = load i32, i32* %3, align 4
  %16 = icmp slt i32 %15, 1000
  br i1 %16, label %17, label %18

17:                                               ; preds = %14
  store i32 3, i32* %4, align 4
  br label %23

18:                                               ; preds = %14
  %19 = load i32, i32* %3, align 4
  %20 = icmp slt i32 %19, 10000
  br i1 %20, label %21, label %22

21:                                               ; preds = %18
  store i32 4, i32* %4, align 4
  br label %22

22:                                               ; preds = %21, %18
  br label %23

23:                                               ; preds = %22, %17
  br label %24

24:                                               ; preds = %23, %13
  br label %25

25:                                               ; preds = %24, %9
  br label %26

26:                                               ; preds = %35, %25
  %27 = load i32, i32* %3, align 4
  %28 = srem i32 %27, 10
  store i32 %28, i32* %2, align 4
  %29 = load i32, i32* %2, align 4
  %30 = call i32 (i8*, ...) @printf(i8* getelementptr inbounds ([3 x i8], [3 x i8]* @.str, i64 0, i64 0), i32 %29)
  %31 = load i32, i32* %3, align 4
  %32 = sdiv i32 %31, 10
  store i32 %32, i32* %3, align 4
  %33 = load i32, i32* %5, align 4
  %34 = add nsw i32 %33, 1
  store i32 %34, i32* %5, align 4
  br label %35

35:                                               ; preds = %26
  %36 = load i32, i32* %5, align 4
  %37 = load i32, i32* %4, align 4
  %38 = icmp sle i32 %36, %37
  br i1 %38, label %26, label %39

39:                                               ; preds = %35
  ret i32 0
}

declare dso_local i32 @__isoc99_scanf(i8*, ...) #1

declare dso_local i32 @printf(i8*, ...) #1


!llvm.module.flags = !{!0}
!llvm.ident = !{!1}

!0 = !{i32 1, !"wchar_size", i32 4}
!1 = !{!"clang version 10.0.0-4ubuntu1 "}
